target datalayout = "e-m:e-p270:32:32-p271:32:32-p272:64:64-i64:64-i128:128-f80:128-n8:16:32:64-S128"
target triple = "x86_64-pc-linux-gnu"

%struct.DIST_POINT_st = type { ptr, ptr, ptr, i32 }
%struct.DIST_POINT_NAME_st = type { i32, %union.anon, ptr }
%union.anon = type { ptr }

@.str.21 = private unnamed_addr constant [8 x i8] c"http://\00", align 1
@.str.211 = private unnamed_addr constant [12 x i8] c"CRL via CDP\00", align 1

; Function Attrs: inlinehint nounwind uwtable
define internal ptr @ossl_check_const_GENERAL_NAME_sk_type(ptr noundef %0) #5 {
  %2 = alloca ptr, align 8
  store ptr %0, ptr %2, align 8, !tbaa !215
  %3 = load ptr, ptr %2, align 8, !tbaa !215
  ret ptr %3
}

; Function Attrs: nounwind uwtable
define internal ptr @get_dp_url(ptr noundef %0) #0 {
  %2 = alloca ptr, align 8
  %3 = alloca ptr, align 8
  %4 = alloca ptr, align 8
  %5 = alloca ptr, align 8
  %6 = alloca i32, align 4
  %7 = alloca i32, align 4
  %8 = alloca ptr, align 8
  %9 = alloca i32, align 4
  %10 = alloca ptr, align 8
  store ptr %0, ptr %3, align 8, !tbaa !206
  call void @llvm.lifetime.start.p0(i64 8, ptr %4) #12
  call void @llvm.lifetime.start.p0(i64 8, ptr %5) #12
  call void @llvm.lifetime.start.p0(i64 4, ptr %6) #12
  call void @llvm.lifetime.start.p0(i64 4, ptr %7) #12
  call void @llvm.lifetime.start.p0(i64 8, ptr %8) #12
  %11 = load ptr, ptr %3, align 8, !tbaa !206
  %12 = getelementptr inbounds nuw %struct.DIST_POINT_st, ptr %11, i32 0, i32 0
  %13 = load ptr, ptr %12, align 8, !tbaa !209
  %14 = icmp ne ptr %13, null
  br i1 %14, label %15, label %22

15:                                               ; preds = %1
  %16 = load ptr, ptr %3, align 8, !tbaa !206
  %17 = getelementptr inbounds nuw %struct.DIST_POINT_st, ptr %16, i32 0, i32 0
  %18 = load ptr, ptr %17, align 8, !tbaa !209
  %19 = getelementptr inbounds nuw %struct.DIST_POINT_NAME_st, ptr %18, i32 0, i32 0
  %20 = load i32, ptr %19, align 8, !tbaa !213
  %21 = icmp ne i32 %20, 0
  br i1 %21, label %22, label %23

22:                                               ; preds = %15, %1
  store ptr null, ptr %2, align 8
  store i32 1, ptr %9, align 4
  br label %68

23:                                               ; preds = %15
  %24 = load ptr, ptr %3, align 8, !tbaa !206
  %25 = getelementptr inbounds nuw %struct.DIST_POINT_st, ptr %24, i32 0, i32 0
  %26 = load ptr, ptr %25, align 8, !tbaa !209
  %27 = getelementptr inbounds nuw %struct.DIST_POINT_NAME_st, ptr %26, i32 0, i32 1
  %28 = load ptr, ptr %27, align 8, !tbaa !11
  store ptr %28, ptr %4, align 8, !tbaa !215
  store i32 0, ptr %6, align 4, !tbaa !25
  br label %29

29:                                               ; preds = %64, %23
  %30 = load i32, ptr %6, align 4, !tbaa !25
  %31 = load ptr, ptr %4, align 8, !tbaa !215
  %32 = call ptr @ossl_check_const_GENERAL_NAME_sk_type(ptr noundef %31)
  %33 = call i32 @OPENSSL_sk_num(ptr noundef %32)
  %34 = icmp slt i32 %30, %33
  br i1 %34, label %35, label %67

35:                                               ; preds = %29
  %36 = load ptr, ptr %4, align 8, !tbaa !215
  %37 = call ptr @ossl_check_const_GENERAL_NAME_sk_type(ptr noundef %36)
  %38 = load i32, ptr %6, align 4, !tbaa !25
  %39 = call ptr @OPENSSL_sk_value(ptr noundef %37, i32 noundef %38)
  store ptr %39, ptr %5, align 8, !tbaa !216
  %40 = load ptr, ptr %5, align 8, !tbaa !216
  %41 = call ptr @GENERAL_NAME_get0_value(ptr noundef %40, ptr noundef %7)
  store ptr %41, ptr %8, align 8, !tbaa !117
  %42 = load i32, ptr %7, align 4, !tbaa !25
  %43 = icmp eq i32 %42, 6
  br i1 %43, label %44, label %63

44:                                               ; preds = %35
  %45 = load ptr, ptr %8, align 8, !tbaa !117
  %46 = call i32 @ASN1_STRING_length(ptr noundef %45)
  %47 = icmp sgt i32 %46, 6
  br i1 %47, label %48, label %63

48:                                               ; preds = %44
  call void @llvm.lifetime.start.p0(i64 8, ptr %10) #12
  %49 = load ptr, ptr %8, align 8, !tbaa !117
  %50 = call ptr @ASN1_STRING_get0_data(ptr noundef %49)
  store ptr %50, ptr %10, align 8, !tbaa !9
  %51 = load ptr, ptr %10, align 8, !tbaa !9
  %52 = icmp ne ptr %51, null
  br i1 %52, label %53, label %59

53:                                               ; preds = %48
  %54 = load ptr, ptr %10, align 8, !tbaa !9
  %55 = call i32 @strncmp(ptr noundef %54, ptr noundef @.str.21, i64 noundef 7) #14
  %56 = icmp eq i32 %55, 0
  br i1 %56, label %57, label %59

57:                                               ; preds = %53
  %58 = load ptr, ptr %10, align 8, !tbaa !9
  store ptr %58, ptr %2, align 8
  store i32 1, ptr %9, align 4
  br label %60

59:                                               ; preds = %53, %48
  store i32 0, ptr %9, align 4
  br label %60

60:                                               ; preds = %59, %57
  call void @llvm.lifetime.end.p0(i64 8, ptr %10) #12
  %61 = load i32, ptr %9, align 4
  switch i32 %61, label %68 [
    i32 0, label %62
  ]

62:                                               ; preds = %60
  br label %63

63:                                               ; preds = %62, %44, %35
  br label %64

64:                                               ; preds = %63
  %65 = load i32, ptr %6, align 4, !tbaa !25
  %66 = add nsw i32 %65, 1
  store i32 %66, ptr %6, align 4, !tbaa !25
  br label %29, !llvm.loop !218

67:                                               ; preds = %29
  store ptr null, ptr %2, align 8
  store i32 1, ptr %9, align 4
  br label %68

68:                                               ; preds = %67, %60, %22
  call void @llvm.lifetime.end.p0(i64 8, ptr %8) #12
  call void @llvm.lifetime.end.p0(i64 4, ptr %7) #12
  call void @llvm.lifetime.end.p0(i64 4, ptr %6) #12
  call void @llvm.lifetime.end.p0(i64 8, ptr %5) #12
  call void @llvm.lifetime.end.p0(i64 8, ptr %4) #12
  %69 = load ptr, ptr %2, align 8
  ret ptr %69
}

; Function Attrs: inlinehint nounwind uwtable
define internal ptr @ossl_check_const_DIST_POINT_sk_type(ptr noundef %0) #5 {
  %2 = alloca ptr, align 8
  store ptr %0, ptr %2, align 8, !tbaa !161
  %3 = load ptr, ptr %2, align 8, !tbaa !161
  ret ptr %3
}

; Function Attrs: nounwind uwtable
define internal ptr @load_crl_crldp(ptr noundef %0) #0 {
  %2 = alloca ptr, align 8
  %3 = alloca ptr, align 8
  %4 = alloca i32, align 4
  %5 = alloca ptr, align 8
  %6 = alloca ptr, align 8
  %7 = alloca i32, align 4
  store ptr %0, ptr %3, align 8, !tbaa !161
  call void @llvm.lifetime.start.p0(i64 4, ptr %4) #12
  call void @llvm.lifetime.start.p0(i64 8, ptr %5) #12
  store ptr null, ptr %5, align 8, !tbaa !9
  store i32 0, ptr %4, align 4, !tbaa !25
  br label %8

8:                                                ; preds = %30, %1
  %9 = load i32, ptr %4, align 4, !tbaa !25
  %10 = load ptr, ptr %3, align 8, !tbaa !161
  %11 = call ptr @ossl_check_const_DIST_POINT_sk_type(ptr noundef %10)
  %12 = call i32 @OPENSSL_sk_num(ptr noundef %11)
  %13 = icmp slt i32 %9, %12
  br i1 %13, label %14, label %33

14:                                               ; preds = %8
  call void @llvm.lifetime.start.p0(i64 8, ptr %6) #12
  %15 = load ptr, ptr %3, align 8, !tbaa !161
  %16 = call ptr @ossl_check_const_DIST_POINT_sk_type(ptr noundef %15)
  %17 = load i32, ptr %4, align 4, !tbaa !25
  %18 = call ptr @OPENSSL_sk_value(ptr noundef %16, i32 noundef %17)
  store ptr %18, ptr %6, align 8, !tbaa !206
  %19 = load ptr, ptr %6, align 8, !tbaa !206
  %20 = call ptr @get_dp_url(ptr noundef %19)
  store ptr %20, ptr %5, align 8, !tbaa !9
  %21 = load ptr, ptr %5, align 8, !tbaa !9
  %22 = icmp ne ptr %21, null
  br i1 %22, label %23, label %26

23:                                               ; preds = %14
  %24 = load ptr, ptr %5, align 8, !tbaa !9
  %25 = call ptr @load_crl(ptr noundef %24, i32 noundef 0, i32 noundef 0, ptr noundef @.str.211)
  store ptr %25, ptr %2, align 8
  store i32 1, ptr %7, align 4
  br label %27

26:                                               ; preds = %14
  store i32 0, ptr %7, align 4
  br label %27

27:                                               ; preds = %26, %23
  call void @llvm.lifetime.end.p0(i64 8, ptr %6) #12
  %28 = load i32, ptr %7, align 4
  switch i32 %28, label %34 [
    i32 0, label %29
  ]

29:                                               ; preds = %27
  br label %30

30:                                               ; preds = %29
  %31 = load i32, ptr %4, align 4, !tbaa !25
  %32 = add nsw i32 %31, 1
  store i32 %32, ptr %4, align 4, !tbaa !25
  br label %8, !llvm.loop !208

33:                                               ; preds = %8
  store ptr null, ptr %2, align 8
  store i32 1, ptr %7, align 4
  br label %34

34:                                               ; preds = %33, %27
  call void @llvm.lifetime.end.p0(i64 8, ptr %5) #12
  call void @llvm.lifetime.end.p0(i64 4, ptr %4) #12
  %35 = load ptr, ptr %2, align 8
  ret ptr %35
}