; Function Attrs: nounwind uwtable
define internal fastcc ptr @load_crl_crldp(ptr noundef %0) unnamed_addr #0 {
  %2 = alloca i32, align 4
  %3 = tail call i32 @OPENSSL_sk_num(ptr noundef %0) #27
  %4 = icmp sgt i32 %3, 0
  br i1 %4, label %.lr.ph, label %.loopexit18

.lr.ph:                                           ; preds = %1, %.loopexit
  %.01019 = phi i32 [ %30, %.loopexit ], [ 0, %1 ]
  %5 = call ptr @OPENSSL_sk_value(ptr noundef %0, i32 noundef %.01019) #27
  %.val = load ptr, ptr %5, align 8, !tbaa !120
  call void @llvm.lifetime.start.p0(i64 4, ptr nonnull %2) #27
  %.not.i = icmp eq ptr %.val, null
  br i1 %.not.i, label %.loopexit, label %6

6:                                                ; preds = %.lr.ph
  %7 = load i32, ptr %.val, align 8, !tbaa !124
  %.not19.i = icmp eq i32 %7, 0
  br i1 %.not19.i, label %8, label %.loopexit

8:                                                ; preds = %6
  %9 = getelementptr inbounds nuw i8, ptr %.val, i64 8
  %10 = load ptr, ptr %9, align 8, !tbaa !13
  %11 = call i32 @OPENSSL_sk_num(ptr noundef %10) #27
  %12 = icmp sgt i32 %11, 0
  br i1 %12, label %.lr.ph.i, label %.loopexit

.lr.ph.i:                                         ; preds = %8, %.thread.i
  %.0163.i = phi i32 [ %25, %.thread.i ], [ 0, %8 ]
  %13 = call ptr @OPENSSL_sk_value(ptr noundef %10, i32 noundef %.0163.i) #27
  %14 = call ptr @GENERAL_NAME_get0_value(ptr noundef %13, ptr noundef nonnull %2) #27
  %15 = load i32, ptr %2, align 4, !tbaa !30
  %16 = icmp eq i32 %15, 6
  br i1 %16, label %17, label %.thread.i

17:                                               ; preds = %.lr.ph.i
  %18 = call i32 @ASN1_STRING_length(ptr noundef %14) #27
  %19 = icmp sgt i32 %18, 6
  br i1 %19, label %20, label %.thread.i

20:                                               ; preds = %17
  %21 = call ptr @ASN1_STRING_get0_data(ptr noundef %14) #27
  %.not20.i = icmp eq ptr %21, null
  br i1 %.not20.i, label %.thread.i, label %22

22:                                               ; preds = %20
  %23 = call i32 @strncmp(ptr noundef nonnull dereferenceable(1) %21, ptr noundef nonnull dereferenceable(8) @.str.21, i64 noundef 7) #29
  %24 = icmp eq i32 %23, 0
  br i1 %24, label %28, label %.thread.i

.thread.i:                                        ; preds = %22, %20, %17, %.lr.ph.i
  %25 = add nuw nsw i32 %.0163.i, 1
  %26 = call i32 @OPENSSL_sk_num(ptr noundef %10) #27
  %27 = icmp slt i32 %25, %26
  br i1 %27, label %.lr.ph.i, label %.loopexit, !llvm.loop !127

28:                                               ; preds = %22
  call void @llvm.lifetime.end.p0(i64 4, ptr nonnull %2) #27
  %29 = call ptr @load_crl(ptr noundef nonnull %21, i32 noundef 0, i32 noundef 0, ptr noundef nonnull @.str.211)
  br label %.loopexit18

.loopexit:                                        ; preds = %.thread.i, %6, %.lr.ph, %8
  call void @llvm.lifetime.end.p0(i64 4, ptr nonnull %2) #27
  %30 = add nuw nsw i32 %.01019, 1
  %31 = call i32 @OPENSSL_sk_num(ptr noundef %0) #27
  %32 = icmp slt i32 %30, %31
  br i1 %32, label %.lr.ph, label %.loopexit18, !llvm.loop !128

.loopexit18:                                      ; preds = %.loopexit, %1, %28
  %.2 = phi ptr [ %29, %28 ], [ null, %1 ], [ null, %.loopexit ]
  ret ptr %.2
}